; Function Attrs: nounwind uwtable
define void @bufferevent_lock(ptr noundef captures(none) %0) local_unnamed_addr #0 {
  %2 = getelementptr inbounds nuw i8, ptr %0, i64 448
  %3 = load ptr, ptr %2, align 8
  %.not.i = icmp eq ptr %3, null
  br i1 %.not.i, label %bufferevent_incref_and_lock_.exit, label %4

4:                                                ; preds = %1
  %5 = load ptr, ptr getelementptr inbounds nuw (i8, ptr @evthread_lock_fns_, i64 24), align 8
  %6 = tail call i32 %5(i32 noundef 0, ptr noundef nonnull %3) #7
  br label %bufferevent_incref_and_lock_.exit

bufferevent_incref_and_lock_.exit:                ; preds = %1, %4
  %7 = getelementptr inbounds nuw i8, ptr %0, i64 444
  %8 = load i32, ptr %7, align 4
  %9 = add nsw i32 %8, 1
  store i32 %9, ptr %7, align 4
  ret void
}